target datalayout = "e-m:e-p270:32:32-p271:32:32-p272:64:64-i64:64-i128:128-f80:128-n8:16:32:64-S128"
target triple = "x86_64-pc-linux-gnu"

%"class.duckdb::ColumnWriter.base" = type <{ ptr, ptr, i64, %"class.duckdb::vector.15", i64, i64, i8 }>
%"class.duckdb::vector.15" = type { %"class.std::vector.16" }
%"class.std::vector.16" = type { %"struct.std::_Vector_base.17" }
%"struct.std::_Vector_base.17" = type { %"struct.std::_Vector_base<std::__cxx11::basic_string<char>, std::allocator<std::__cxx11::basic_string<char>>>::_Vector_impl" }
%"struct.std::_Vector_base<std::__cxx11::basic_string<char>, std::allocator<std::__cxx11::basic_string<char>>>::_Vector_impl" = type { %"struct.std::_Vector_base<std::__cxx11::basic_string<char>, std::allocator<std::__cxx11::basic_string<char>>>::_Vector_impl_data" }
%"struct.std::_Vector_base<std::__cxx11::basic_string<char>, std::allocator<std::__cxx11::basic_string<char>>>::_Vector_impl_data" = type { ptr, ptr, ptr }
%"class.duckdb::ColumnWriterState" = type { ptr, %"class.duckdb::vector", %"class.duckdb::vector", %"class.duckdb::vector.0", i64, i64 }
%"class.duckdb::vector" = type { %"class.std::vector" }
%"class.std::vector" = type { %"struct.std::_Vector_base" }
%"struct.std::_Vector_base" = type { %"struct.std::_Vector_base<unsigned short, std::allocator<unsigned short>>::_Vector_impl" }
%"struct.std::_Vector_base<unsigned short, std::allocator<unsigned short>>::_Vector_impl" = type { %"struct.std::_Vector_base<unsigned short, std::allocator<unsigned short>>::_Vector_impl_data" }
%"struct.std::_Vector_base<unsigned short, std::allocator<unsigned short>>::_Vector_impl_data" = type { ptr, ptr, ptr }
%"class.duckdb::vector.0" = type { %"class.std::vector.1" }
%"class.std::vector.1" = type { %"struct.std::_Bvector_base" }
%"struct.std::_Bvector_base" = type { %"struct.std::_Bvector_base<std::allocator<bool>>::_Bvector_impl" }
%"struct.std::_Bvector_base<std::allocator<bool>>::_Bvector_impl" = type { %"struct.std::_Bvector_base<std::allocator<bool>>::_Bvector_impl_data" }
%"struct.std::_Bvector_base<std::allocator<bool>>::_Bvector_impl_data" = type { %"struct.std::_Bit_iterator", %"struct.std::_Bit_iterator", ptr }
%"struct.std::_Bit_iterator" = type { %"struct.std::_Bit_iterator_base.base", [4 x i8] }
%"struct.std::_Bit_iterator_base.base" = type <{ ptr, i32 }>
%"class.duckdb::vector.137" = type { %"class.std::vector.138" }
%"class.std::vector.138" = type { %"struct.std::_Vector_base.139" }
%"struct.std::_Vector_base.139" = type { %"struct.std::_Vector_base<duckdb::unique_ptr<duckdb::ColumnWriter>, std::allocator<duckdb::unique_ptr<duckdb::ColumnWriter>>>::_Vector_impl" }
%"struct.std::_Vector_base<duckdb::unique_ptr<duckdb::ColumnWriter>, std::allocator<duckdb::unique_ptr<duckdb::ColumnWriter>>>::_Vector_impl" = type { %"struct.std::_Vector_base<duckdb::unique_ptr<duckdb::ColumnWriter>, std::allocator<duckdb::unique_ptr<duckdb::ColumnWriter>>>::_Vector_impl_data" }
%"struct.std::_Vector_base<duckdb::unique_ptr<duckdb::ColumnWriter>, std::allocator<duckdb::unique_ptr<duckdb::ColumnWriter>>>::_Vector_impl_data" = type { ptr, ptr, ptr }
%"class.duckdb::StructColumnWriterState" = type { %"class.duckdb::ColumnWriterState", ptr, i64, %"class.duckdb::vector.371" }
%"class.duckdb::vector.371" = type { %"class.std::vector.372" }
%"class.std::vector.372" = type { %"struct.std::_Vector_base.373" }
%"struct.std::_Vector_base.373" = type { %"struct.std::_Vector_base<duckdb::unique_ptr<duckdb::ColumnWriterState>, std::allocator<duckdb::unique_ptr<duckdb::ColumnWriterState>>>::_Vector_impl" }
%"struct.std::_Vector_base<duckdb::unique_ptr<duckdb::ColumnWriterState>, std::allocator<duckdb::unique_ptr<duckdb::ColumnWriterState>>>::_Vector_impl" = type { %"struct.std::_Vector_base<duckdb::unique_ptr<duckdb::ColumnWriterState>, std::allocator<duckdb::unique_ptr<duckdb::ColumnWriterState>>>::_Vector_impl_data" }
%"struct.std::_Vector_base<duckdb::unique_ptr<duckdb::ColumnWriterState>, std::allocator<duckdb::unique_ptr<duckdb::ColumnWriterState>>>::_Vector_impl_data" = type { ptr, ptr, ptr }
%"class.duckdb::StructColumnWriter" = type { %"class.duckdb::ColumnWriter.base", %"class.duckdb::vector.137" }

; Function Attrs: mustprogress nounwind uwtable
define linkonce_odr void @_ZN6duckdb16DynamicCastCheckINS_23StructColumnWriterStateENS_17ColumnWriterStateEEEvPKT0_(ptr noundef %0) #5 comdat {
  %2 = alloca ptr, align 8
  store ptr %0, ptr %2, align 8, !tbaa !8
  ret void
}

; Function Attrs: mustprogress nounwind uwtable
define linkonce_odr noundef i64 @_ZNKSt6vectorIN6duckdb10unique_ptrINS0_12ColumnWriterESt14default_deleteIS2_ELb1EEESaIS5_EE4sizeEv(ptr noundef nonnull align 8 dereferenceable(24) %0) #5 comdat align 2 {
  %2 = alloca ptr, align 8
  store ptr %0, ptr %2, align 8, !tbaa !618
  %3 = load ptr, ptr %2, align 8
  %4 = getelementptr inbounds nuw %"struct.std::_Vector_base.139", ptr %3, i32 0, i32 0
  %5 = getelementptr inbounds nuw %"struct.std::_Vector_base<duckdb::unique_ptr<duckdb::ColumnWriter>, std::allocator<duckdb::unique_ptr<duckdb::ColumnWriter>>>::_Vector_impl_data", ptr %4, i32 0, i32 1
  %6 = load ptr, ptr %5, align 8, !tbaa !620
  %7 = getelementptr inbounds nuw %"struct.std::_Vector_base.139", ptr %3, i32 0, i32 0
  %8 = getelementptr inbounds nuw %"struct.std::_Vector_base<duckdb::unique_ptr<duckdb::ColumnWriter>, std::allocator<duckdb::unique_ptr<duckdb::ColumnWriter>>>::_Vector_impl_data", ptr %7, i32 0, i32 0
  %9 = load ptr, ptr %8, align 8, !tbaa !621
  %10 = ptrtoint ptr %6 to i64
  %11 = ptrtoint ptr %9 to i64
  %12 = sub i64 %10, %11
  %13 = sdiv exact i64 %12, 8
  ret i64 %13
}

; Function Attrs: mustprogress uwtable
define linkonce_odr noundef nonnull align 8 dereferenceable(152) ptr @_ZN6duckdb17ColumnWriterState4CastINS_23StructColumnWriterStateEEERT_v(ptr noundef nonnull align 8 dereferenceable(112) %0) #0 comdat align 2 {
  %2 = alloca ptr, align 8
  store ptr %0, ptr %2, align 8, !tbaa !8
  %3 = load ptr, ptr %2, align 8
  call void @_ZN6duckdb16DynamicCastCheckINS_23StructColumnWriterStateENS_17ColumnWriterStateEEEvPKT0_(ptr noundef %3)
  ret ptr %3
}

; Function Attrs: mustprogress uwtable
define void @_ZN6duckdb18StructColumnWriter5WriteERNS_17ColumnWriterStateERNS_6VectorEm(ptr noundef nonnull align 8 dereferenceable(96) %0, ptr noundef nonnull align 8 dereferenceable(112) %1, ptr noundef nonnull align 8 dereferenceable(104) %2, i64 noundef %3) unnamed_addr #0 align 2 {
  %5 = alloca ptr, align 8
  %6 = alloca ptr, align 8
  %7 = alloca ptr, align 8
  %8 = alloca i64, align 8
  %9 = alloca ptr, align 8
  %10 = alloca ptr, align 8
  %11 = alloca i64, align 8
  store ptr %0, ptr %5, align 8, !tbaa !604
  store ptr %1, ptr %6, align 8, !tbaa !8
  store ptr %2, ptr %7, align 8, !tbaa !10
  store i64 %3, ptr %8, align 8, !tbaa !12
  %12 = load ptr, ptr %5, align 8
  call void @llvm.lifetime.start.p0(i64 8, ptr %9) #19
  %13 = load ptr, ptr %6, align 8, !tbaa !8
  %14 = call noundef nonnull align 8 dereferenceable(152) ptr @_ZN6duckdb17ColumnWriterState4CastINS_23StructColumnWriterStateEEERT_v(ptr noundef nonnull align 8 dereferenceable(112) %13)
  store ptr %14, ptr %9, align 8, !tbaa !610
  call void @llvm.lifetime.start.p0(i64 8, ptr %10) #19
  %15 = load ptr, ptr %7, align 8, !tbaa !10
  %16 = call noundef nonnull align 8 dereferenceable(24) ptr @_ZN6duckdb12StructVector10GetEntriesERNS_6VectorE(ptr noundef nonnull align 8 dereferenceable(104) %15)
  store ptr %16, ptr %10, align 8, !tbaa !630
  call void @llvm.lifetime.start.p0(i64 8, ptr %11) #19
  store i64 0, ptr %11, align 8, !tbaa !12
  br label %17

17:                                               ; preds = %41, %4
  %18 = load i64, ptr %11, align 8, !tbaa !12
  %19 = getelementptr inbounds nuw %"class.duckdb::StructColumnWriter", ptr %12, i32 0, i32 1
  %20 = call noundef i64 @_ZNKSt6vectorIN6duckdb10unique_ptrINS0_12ColumnWriterESt14default_deleteIS2_ELb1EEESaIS5_EE4sizeEv(ptr noundef nonnull align 8 dereferenceable(24) %19) #19
  %21 = icmp ult i64 %18, %20
  br i1 %21, label %23, label %22

22:                                               ; preds = %17
  call void @llvm.lifetime.end.p0(i64 8, ptr %11) #19
  br label %44

23:                                               ; preds = %17
  %24 = getelementptr inbounds nuw %"class.duckdb::StructColumnWriter", ptr %12, i32 0, i32 1
  %25 = load i64, ptr %11, align 8, !tbaa !12
  %26 = call noundef nonnull align 8 dereferenceable(8) ptr @_ZN6duckdb6vectorINS_10unique_ptrINS_12ColumnWriterESt14default_deleteIS2_ELb1EEELb1EEixEm(ptr noundef nonnull align 8 dereferenceable(24) %24, i64 noundef %25)
  %27 = call noundef ptr @_ZNK6duckdb10unique_ptrINS_12ColumnWriterESt14default_deleteIS1_ELb1EEptEv(ptr noundef nonnull align 8 dereferenceable(8) %26)
  %28 = load ptr, ptr %9, align 8, !tbaa !610
  %29 = getelementptr inbounds nuw %"class.duckdb::StructColumnWriterState", ptr %28, i32 0, i32 3
  %30 = load i64, ptr %11, align 8, !tbaa !12
  %31 = call noundef nonnull align 8 dereferenceable(8) ptr @_ZN6duckdb6vectorINS_10unique_ptrINS_17ColumnWriterStateESt14default_deleteIS2_ELb1EEELb1EEixEm(ptr noundef nonnull align 8 dereferenceable(24) %29, i64 noundef %30)
  %32 = call noundef nonnull align 8 dereferenceable(112) ptr @_ZNK6duckdb10unique_ptrINS_17ColumnWriterStateESt14default_deleteIS1_ELb1EEdeEv(ptr noundef nonnull align 8 dereferenceable(8) %31)
  %33 = load ptr, ptr %10, align 8, !tbaa !630
  %34 = load i64, ptr %11, align 8, !tbaa !12
  %35 = call noundef nonnull align 8 dereferenceable(8) ptr @_ZN6duckdb6vectorINS_10unique_ptrINS_6VectorESt14default_deleteIS2_ELb1EEELb1EEixEm(ptr noundef nonnull align 8 dereferenceable(24) %33, i64 noundef %34)
  %36 = call noundef nonnull align 8 dereferenceable(104) ptr @_ZNK6duckdb10unique_ptrINS_6VectorESt14default_deleteIS1_ELb1EEdeEv(ptr noundef nonnull align 8 dereferenceable(8) %35)
  %37 = load i64, ptr %8, align 8, !tbaa !12
  %38 = load ptr, ptr %27, align 8, !tbaa !16
  %39 = getelementptr inbounds ptr, ptr %38, i64 8
  %40 = load ptr, ptr %39, align 8
  call void %40(ptr noundef nonnull align 8 dereferenceable(65) %27, ptr noundef nonnull align 8 dereferenceable(112) %32, ptr noundef nonnull align 8 dereferenceable(104) %36, i64 noundef %37)
  br label %41

41:                                               ; preds = %23
  %42 = load i64, ptr %11, align 8, !tbaa !12
  %43 = add i64 %42, 1
  store i64 %43, ptr %11, align 8, !tbaa !12
  br label %17, !llvm.loop !641

44:                                               ; preds = %22
  call void @llvm.lifetime.end.p0(i64 8, ptr %10) #19
  call void @llvm.lifetime.end.p0(i64 8, ptr %9) #19
  ret void
}