; Function Attrs: mustprogress uwtable
define void @_ZN6duckdb18StructColumnWriter5WriteERNS_17ColumnWriterStateERNS_6VectorEm(ptr noundef nonnull align 8 dereferenceable(96) %0, ptr noundef nonnull align 8 dereferenceable(112) %1, ptr noundef nonnull align 8 dereferenceable(104) %2, i64 noundef %3) unnamed_addr #0 align 2 {
  %5 = tail call noundef nonnull align 8 dereferenceable(24) ptr @_ZN6duckdb12StructVector10GetEntriesERNS_6VectorE(ptr noundef nonnull align 8 dereferenceable(104) %2)
  %6 = getelementptr inbounds nuw i8, ptr %0, i64 72
  %7 = getelementptr inbounds nuw i8, ptr %0, i64 80
  %8 = load ptr, ptr %7, align 8, !tbaa !517
  %9 = load ptr, ptr %6, align 8, !tbaa !518
  %.not = icmp eq ptr %8, %9
  br i1 %.not, label %._crit_edge, label %.lr.ph

.lr.ph:                                           ; preds = %4
  %10 = getelementptr inbounds nuw i8, ptr %1, i64 128
  br label %11

._crit_edge:                                      ; preds = %11, %4
  ret void

11:                                               ; preds = %.lr.ph, %11
  %.010 = phi i64 [ 0, %.lr.ph ], [ %21, %11 ]
  %12 = tail call noundef nonnull align 8 dereferenceable(8) ptr @_ZN6duckdb6vectorINS_10unique_ptrINS_12ColumnWriterESt14default_deleteIS2_ELb1EEELb1EEixEm(ptr noundef nonnull align 8 dereferenceable(24) %6, i64 noundef %.010)
  %13 = tail call noundef ptr @_ZNK6duckdb10unique_ptrINS_12ColumnWriterESt14default_deleteIS1_ELb1EEptEv(ptr noundef nonnull align 8 dereferenceable(8) %12)
  %14 = tail call noundef nonnull align 8 dereferenceable(8) ptr @_ZN6duckdb6vectorINS_10unique_ptrINS_17ColumnWriterStateESt14default_deleteIS2_ELb1EEELb1EEixEm(ptr noundef nonnull align 8 dereferenceable(24) %10, i64 noundef %.010)
  %15 = tail call noundef nonnull align 8 dereferenceable(112) ptr @_ZNK6duckdb10unique_ptrINS_17ColumnWriterStateESt14default_deleteIS1_ELb1EEdeEv(ptr noundef nonnull align 8 dereferenceable(8) %14)
  %16 = tail call noundef nonnull align 8 dereferenceable(8) ptr @_ZN6duckdb6vectorINS_10unique_ptrINS_6VectorESt14default_deleteIS2_ELb1EEELb1EEixEm(ptr noundef nonnull align 8 dereferenceable(24) %5, i64 noundef %.010)
  %17 = tail call noundef nonnull align 8 dereferenceable(104) ptr @_ZNK6duckdb10unique_ptrINS_6VectorESt14default_deleteIS1_ELb1EEdeEv(ptr noundef nonnull align 8 dereferenceable(8) %16)
  %18 = load ptr, ptr %13, align 8, !tbaa !3
  %19 = getelementptr inbounds nuw i8, ptr %18, i64 64
  %20 = load ptr, ptr %19, align 8
  tail call void %20(ptr noundef nonnull align 8 dereferenceable(65) %13, ptr noundef nonnull align 8 dereferenceable(112) %15, ptr noundef nonnull align 8 dereferenceable(104) %17, i64 noundef %3)
  %21 = add nuw i64 %.010, 1
  %22 = load ptr, ptr %7, align 8, !tbaa !517
  %23 = load ptr, ptr %6, align 8, !tbaa !518
  %24 = ptrtoint ptr %22 to i64
  %25 = ptrtoint ptr %23 to i64
  %26 = sub i64 %24, %25
  %27 = ashr exact i64 %26, 3
  %28 = icmp ult i64 %21, %27
  br i1 %28, label %11, label %._crit_edge, !llvm.loop !545
}